ARM GAS  C:\Users\MHONDA~1\AppData\Local\Temp\ccu63tWo.s 			page 1


   1              		.cpu cortex-m4
   2              		.arch armv7e-m
   3              		.fpu fpv4-sp-d16
   4              		.eabi_attribute 27, 1
   5              		.eabi_attribute 28, 1
   6              		.eabi_attribute 20, 1
   7              		.eabi_attribute 21, 1
   8              		.eabi_attribute 23, 3
   9              		.eabi_attribute 24, 1
  10              		.eabi_attribute 25, 1
  11              		.eabi_attribute 26, 1
  12              		.eabi_attribute 30, 1
  13              		.eabi_attribute 34, 1
  14              		.eabi_attribute 18, 4
  15              		.file	"wait.cpp"
  16              		.text
  17              		.section	.text._ZN10peripheral4WaitC2EP17TIM_HandleTypeDef,"ax",%progbits
  18              		.align	1
  19              		.global	_ZN10peripheral4WaitC2EP17TIM_HandleTypeDef
  20              		.syntax unified
  21              		.thumb
  22              		.thumb_func
  24              	_ZN10peripheral4WaitC2EP17TIM_HandleTypeDef:
  25              		.fnstart
  26              	.LFB241:
  27              		@ args = 0, pretend = 0, frame = 0
  28              		@ frame_needed = 0, uses_anonymous_args = 0
  29              		@ link register save eliminated.
  30 0000 0160     		str	r1, [r0]
  31 0002 7047     		bx	lr
  32              		.cantunwind
  33              		.fnend
  35              		.global	_ZN10peripheral4WaitC1EP17TIM_HandleTypeDef
  36              		.thumb_set _ZN10peripheral4WaitC1EP17TIM_HandleTypeDef,_ZN10peripheral4WaitC2EP17TIM_HandleTypeDef
  37              		.section	.text._ZN10peripheral4Wait2UsEm,"ax",%progbits
  38              		.align	1
  39              		.global	_ZN10peripheral4Wait2UsEm
  40              		.syntax unified
  41              		.thumb
  42              		.thumb_func
  44              	_ZN10peripheral4Wait2UsEm:
  45              		.fnstart
  46              	.LFB243:
  47              		@ args = 0, pretend = 0, frame = 0
  48              		@ frame_needed = 0, uses_anonymous_args = 0
  49 0000 38B5     		push	{r3, r4, r5, lr}
  50              		.save {r3, r4, r5, lr}
  51 0002 0446     		mov	r4, r0
  52 0004 0D46     		mov	r5, r1
  53 0006 0368     		ldr	r3, [r0]
  54 0008 1B68     		ldr	r3, [r3]
  55 000a 0022     		movs	r2, #0
  56 000c 5A62     		str	r2, [r3, #36]
  57 000e 0068     		ldr	r0, [r0]
  58 0010 FFF7FEFF 		bl	HAL_TIM_Base_Start
  59              	.L3:
  60 0014 2068     		ldr	r0, [r4]
ARM GAS  C:\Users\MHONDA~1\AppData\Local\Temp\ccu63tWo.s 			page 2


  61 0016 0368     		ldr	r3, [r0]
  62 0018 5B6A     		ldr	r3, [r3, #36]
  63 001a AB42     		cmp	r3, r5
  64 001c FAD3     		bcc	.L3
  65 001e FFF7FEFF 		bl	HAL_TIM_Base_Stop
  66 0022 38BD     		pop	{r3, r4, r5, pc}
  67              		.fnend
  69              		.section	.text._ZN10peripheral4Wait2MsEm,"ax",%progbits
  70              		.align	1
  71              		.global	_ZN10peripheral4Wait2MsEm
  72              		.syntax unified
  73              		.thumb
  74              		.thumb_func
  76              	_ZN10peripheral4Wait2MsEm:
  77              		.fnstart
  78              	.LFB244:
  79              		@ args = 0, pretend = 0, frame = 0
  80              		@ frame_needed = 0, uses_anonymous_args = 0
  81 0000 08B5     		push	{r3, lr}
  82              		.save {r3, lr}
  83 0002 0846     		mov	r0, r1
  84 0004 FFF7FEFF 		bl	HAL_Delay
  85 0008 08BD     		pop	{r3, pc}
  86              		.fnend
  88              		.ident	"GCC: (GNU Arm Embedded Toolchain 10.3-2021.10) 10.3.1 20210824 (release)"
ARM GAS  C:\Users\MHONDA~1\AppData\Local\Temp\ccu63tWo.s 			page 3


DEFINED SYMBOLS
                            *ABS*:00000000 wait.cpp
C:\Users\MHONDA~1\AppData\Local\Temp\ccu63tWo.s:18     .text._ZN10peripheral4WaitC2EP17TIM_HandleTypeDef:00000000 $t
C:\Users\MHONDA~1\AppData\Local\Temp\ccu63tWo.s:24     .text._ZN10peripheral4WaitC2EP17TIM_HandleTypeDef:00000000 _ZN10peripheral4WaitC2EP17TIM_HandleTypeDef
.ARM.exidx.text._ZN10peripheral4WaitC2EP17TIM_HandleTypeDef:00000000 $d
C:\Users\MHONDA~1\AppData\Local\Temp\ccu63tWo.s:24     .text._ZN10peripheral4WaitC2EP17TIM_HandleTypeDef:00000000 _ZN10peripheral4WaitC1EP17TIM_HandleTypeDef
C:\Users\MHONDA~1\AppData\Local\Temp\ccu63tWo.s:38     .text._ZN10peripheral4Wait2UsEm:00000000 $t
C:\Users\MHONDA~1\AppData\Local\Temp\ccu63tWo.s:44     .text._ZN10peripheral4Wait2UsEm:00000000 _ZN10peripheral4Wait2UsEm
.ARM.exidx.text._ZN10peripheral4Wait2UsEm:00000000 $d
C:\Users\MHONDA~1\AppData\Local\Temp\ccu63tWo.s:70     .text._ZN10peripheral4Wait2MsEm:00000000 $t
C:\Users\MHONDA~1\AppData\Local\Temp\ccu63tWo.s:76     .text._ZN10peripheral4Wait2MsEm:00000000 _ZN10peripheral4Wait2MsEm
.ARM.extab.text._ZN10peripheral4Wait2MsEm:00000000 $d
.ARM.exidx.text._ZN10peripheral4Wait2MsEm:00000000 $d

UNDEFINED SYMBOLS
HAL_TIM_Base_Start
HAL_TIM_Base_Stop
__aeabi_unwind_cpp_pr0
HAL_Delay
__aeabi_unwind_cpp_pr1
